target datalayout = "e-m:e-p270:32:32-p271:32:32-p272:64:64-i64:64-i128:128-f80:128-n8:16:32:64-S128"
target triple = "x86_64-pc-linux-gnu"

%struct._packet_info = type { ptr, ptr, i32, i32, %struct.nstime_t, %struct.nstime_t, %struct.nstime_t, i8, ptr, ptr, ptr, ptr, %struct._address, %struct._address, %struct._address, %struct._address, %struct._address, %struct._address, i32, ptr, i8, [3 x i8], %struct.anon, i32, i32, i32, i32, ptr, i8, ptr, ptr, i16, i16, i32, i32, i16, i32, i32, ptr, ptr, ptr, i8, i8, i16, i16, i16, i32, i16, i16, ptr, ptr, ptr, ptr, ptr, i32, i32 }
%struct.nstime_t = type { i64, i32 }
%struct._address = type { i32, i32, ptr, ptr }
%struct.anon = type { i8, [3 x i8] }

; Function Attrs: null_pointer_is_valid sspstrong uwtable
define hidden i32 @get_aircraft_24_bit_address_from_nsap(ptr noundef %0) #0 {
  %2 = alloca i32, align 4
  %3 = alloca ptr, align 8
  %4 = alloca ptr, align 8
  %5 = alloca i32, align 4
  %6 = alloca i32, align 4
  %7 = alloca i32, align 4
  store ptr %0, ptr %3, align 8
  call void @llvm.lifetime.start.p0(i64 8, ptr %4) #9
  store ptr null, ptr %4, align 8
  call void @llvm.lifetime.start.p0(i64 4, ptr %5) #9
  store i32 0, ptr %5, align 4
  call void @llvm.lifetime.start.p0(i64 4, ptr %6) #9
  store i32 0, ptr %6, align 4
  %8 = load ptr, ptr %3, align 8
  %9 = getelementptr inbounds nuw %struct._packet_info, ptr %8, i32 0, i32 16
  %10 = getelementptr inbounds nuw %struct._address, ptr %9, i32 0, i32 0
  %11 = load i32, ptr %10, align 8
  %12 = call i32 @get_osi_address_type()
  %13 = icmp ne i32 %11, %12
  br i1 %13, label %21, label %14

14:                                               ; preds = %1
  %15 = load ptr, ptr %3, align 8
  %16 = getelementptr inbounds nuw %struct._packet_info, ptr %15, i32 0, i32 17
  %17 = getelementptr inbounds nuw %struct._address, ptr %16, i32 0, i32 0
  %18 = load i32, ptr %17, align 8
  %19 = call i32 @get_osi_address_type()
  %20 = icmp ne i32 %18, %19
  br i1 %20, label %21, label %23

21:                                               ; preds = %14, %1
  %22 = load i32, ptr %5, align 4
  store i32 %22, ptr %2, align 4
  store i32 1, ptr %7, align 4
  br label %137

23:                                               ; preds = %14
  %24 = load ptr, ptr %3, align 8
  %25 = getelementptr inbounds nuw %struct._packet_info, ptr %24, i32 0, i32 16
  %26 = getelementptr inbounds nuw %struct._address, ptr %25, i32 0, i32 1
  %27 = load i32, ptr %26, align 4
  %28 = icmp ne i32 %27, 20
  br i1 %28, label %35, label %29

29:                                               ; preds = %23
  %30 = load ptr, ptr %3, align 8
  %31 = getelementptr inbounds nuw %struct._packet_info, ptr %30, i32 0, i32 17
  %32 = getelementptr inbounds nuw %struct._address, ptr %31, i32 0, i32 1
  %33 = load i32, ptr %32, align 4
  %34 = icmp ne i32 %33, 20
  br i1 %34, label %35, label %37

35:                                               ; preds = %29, %23
  %36 = load i32, ptr %5, align 4
  store i32 %36, ptr %2, align 4
  store i32 1, ptr %7, align 4
  br label %137

37:                                               ; preds = %29
  %38 = load ptr, ptr %3, align 8
  %39 = getelementptr inbounds nuw %struct._packet_info, ptr %38, i32 0, i32 16
  %40 = getelementptr inbounds nuw %struct._address, ptr %39, i32 0, i32 2
  %41 = load ptr, ptr %40, align 8
  store ptr %41, ptr %4, align 8
  %42 = load ptr, ptr %4, align 8
  %43 = getelementptr i8, ptr %42, i64 0
  %44 = load i8, ptr %43, align 1
  %45 = zext i8 %44 to i32
  %46 = shl i32 %45, 24
  %47 = load ptr, ptr %4, align 8
  %48 = getelementptr i8, ptr %47, i64 1
  %49 = load i8, ptr %48, align 1
  %50 = zext i8 %49 to i32
  %51 = shl i32 %50, 16
  %52 = or i32 %46, %51
  %53 = load ptr, ptr %4, align 8
  %54 = getelementptr i8, ptr %53, i64 2
  %55 = load i8, ptr %54, align 1
  %56 = zext i8 %55 to i32
  %57 = shl i32 %56, 8
  %58 = or i32 %52, %57
  %59 = load ptr, ptr %4, align 8
  %60 = getelementptr i8, ptr %59, i64 3
  %61 = load i8, ptr %60, align 1
  %62 = zext i8 %61 to i32
  %63 = or i32 %58, %62
  store i32 %63, ptr %6, align 4
  %64 = load i32, ptr %6, align 4
  %65 = icmp eq i32 %64, 1191192513
  br i1 %65, label %69, label %66

66:                                               ; preds = %37
  %67 = load i32, ptr %6, align 4
  %68 = icmp eq i32 %67, 1191192385
  br i1 %68, label %69, label %86

69:                                               ; preds = %66, %37
  %70 = load ptr, ptr %4, align 8
  %71 = getelementptr i8, ptr %70, i64 8
  %72 = load i8, ptr %71, align 1
  %73 = zext i8 %72 to i32
  %74 = shl i32 %73, 16
  %75 = load ptr, ptr %4, align 8
  %76 = getelementptr i8, ptr %75, i64 9
  %77 = load i8, ptr %76, align 1
  %78 = zext i8 %77 to i32
  %79 = shl i32 %78, 8
  %80 = or i32 %74, %79
  %81 = load ptr, ptr %4, align 8
  %82 = getelementptr i8, ptr %81, i64 10
  %83 = load i8, ptr %82, align 1
  %84 = zext i8 %83 to i32
  %85 = or i32 %80, %84
  store i32 %85, ptr %5, align 4
  br label %86

86:                                               ; preds = %69, %66
  %87 = load ptr, ptr %3, align 8
  %88 = getelementptr inbounds nuw %struct._packet_info, ptr %87, i32 0, i32 17
  %89 = getelementptr inbounds nuw %struct._address, ptr %88, i32 0, i32 2
  %90 = load ptr, ptr %89, align 8
  store ptr %90, ptr %4, align 8
  %91 = load ptr, ptr %4, align 8
  %92 = getelementptr i8, ptr %91, i64 0
  %93 = load i8, ptr %92, align 1
  %94 = zext i8 %93 to i32
  %95 = shl i32 %94, 24
  %96 = load ptr, ptr %4, align 8
  %97 = getelementptr i8, ptr %96, i64 1
  %98 = load i8, ptr %97, align 1
  %99 = zext i8 %98 to i32
  %100 = shl i32 %99, 16
  %101 = or i32 %95, %100
  %102 = load ptr, ptr %4, align 8
  %103 = getelementptr i8, ptr %102, i64 2
  %104 = load i8, ptr %103, align 1
  %105 = zext i8 %104 to i32
  %106 = shl i32 %105, 8
  %107 = or i32 %101, %106
  %108 = load ptr, ptr %4, align 8
  %109 = getelementptr i8, ptr %108, i64 3
  %110 = load i8, ptr %109, align 1
  %111 = zext i8 %110 to i32
  %112 = or i32 %107, %111
  store i32 %112, ptr %6, align 4
  %113 = load i32, ptr %6, align 4
  %114 = icmp eq i32 %113, 1191192513
  br i1 %114, label %118, label %115

115:                                              ; preds = %86
  %116 = load i32, ptr %6, align 4
  %117 = icmp eq i32 %116, 1191192385
  br i1 %117, label %118, label %135

118:                                              ; preds = %115, %86
  %119 = load ptr, ptr %4, align 8
  %120 = getelementptr i8, ptr %119, i64 8
  %121 = load i8, ptr %120, align 1
  %122 = zext i8 %121 to i32
  %123 = shl i32 %122, 16
  %124 = load ptr, ptr %4, align 8
  %125 = getelementptr i8, ptr %124, i64 9
  %126 = load i8, ptr %125, align 1
  %127 = zext i8 %126 to i32
  %128 = shl i32 %127, 8
  %129 = or i32 %123, %128
  %130 = load ptr, ptr %4, align 8
  %131 = getelementptr i8, ptr %130, i64 10
  %132 = load i8, ptr %131, align 1
  %133 = zext i8 %132 to i32
  %134 = or i32 %129, %133
  store i32 %134, ptr %5, align 4
  br label %135

135:                                              ; preds = %118, %115
  %136 = load i32, ptr %5, align 4
  store i32 %136, ptr %2, align 4
  store i32 1, ptr %7, align 4
  br label %137

137:                                              ; preds = %135, %35, %21
  call void @llvm.lifetime.end.p0(i64 4, ptr %6) #9
  call void @llvm.lifetime.end.p0(i64 4, ptr %5) #9
  call void @llvm.lifetime.end.p0(i64 8, ptr %4) #9
  %138 = load i32, ptr %2, align 4
  ret i32 %138
}