; Function Attrs: null_pointer_is_valid sspstrong uwtable
define hidden range(i32 0, 16777216) i32 @get_aircraft_24_bit_address_from_nsap(ptr noundef readonly captures(none) %0) local_unnamed_addr #0 {
  %2 = getelementptr inbounds nuw i8, ptr %0, i64 208
  %3 = load i32, ptr %2, align 8
  %4 = tail call i32 @get_osi_address_type()
  %.not = icmp eq i32 %3, %4
  br i1 %.not, label %5, label %83

5:                                                ; preds = %1
  %6 = getelementptr inbounds nuw i8, ptr %0, i64 232
  %7 = load i32, ptr %6, align 8
  %8 = tail call i32 @get_osi_address_type()
  %.not31 = icmp eq i32 %7, %8
  br i1 %.not31, label %9, label %83

9:                                                ; preds = %5
  %10 = getelementptr inbounds nuw i8, ptr %0, i64 212
  %11 = load i32, ptr %10, align 4
  %.not32 = icmp eq i32 %11, 20
  br i1 %.not32, label %12, label %83

12:                                               ; preds = %9
  %13 = getelementptr inbounds nuw i8, ptr %0, i64 236
  %14 = load i32, ptr %13, align 4
  %.not33 = icmp eq i32 %14, 20
  br i1 %.not33, label %15, label %83

15:                                               ; preds = %12
  %16 = getelementptr inbounds nuw i8, ptr %0, i64 216
  %17 = load ptr, ptr %16, align 8
  %18 = load i8, ptr %17, align 1
  %19 = zext i8 %18 to i32
  %20 = shl nuw i32 %19, 24
  %21 = getelementptr i8, ptr %17, i64 1
  %22 = load i8, ptr %21, align 1
  %23 = zext i8 %22 to i32
  %24 = shl nuw nsw i32 %23, 16
  %25 = or disjoint i32 %24, %20
  %26 = getelementptr i8, ptr %17, i64 2
  %27 = load i8, ptr %26, align 1
  %28 = zext i8 %27 to i32
  %29 = shl nuw nsw i32 %28, 8
  %30 = or disjoint i32 %25, %29
  %31 = getelementptr i8, ptr %17, i64 3
  %32 = load i8, ptr %31, align 1
  %33 = and i8 %32, 127
  %.masked = zext nneg i8 %33 to i32
  %34 = or disjoint i32 %30, %.masked
  %or.cond = icmp eq i32 %34, 1191192385
  br i1 %or.cond, label %35, label %49

35:                                               ; preds = %15
  %36 = getelementptr i8, ptr %17, i64 8
  %37 = load i8, ptr %36, align 1
  %38 = zext i8 %37 to i32
  %39 = shl nuw nsw i32 %38, 16
  %40 = getelementptr i8, ptr %17, i64 9
  %41 = load i8, ptr %40, align 1
  %42 = zext i8 %41 to i32
  %43 = shl nuw nsw i32 %42, 8
  %44 = or disjoint i32 %43, %39
  %45 = getelementptr i8, ptr %17, i64 10
  %46 = load i8, ptr %45, align 1
  %47 = zext i8 %46 to i32
  %48 = or disjoint i32 %44, %47
  br label %49

49:                                               ; preds = %15, %35
  %.0 = phi i32 [ %48, %35 ], [ 0, %15 ]
  %50 = getelementptr inbounds nuw i8, ptr %0, i64 240
  %51 = load ptr, ptr %50, align 8
  %52 = load i8, ptr %51, align 1
  %53 = zext i8 %52 to i32
  %54 = shl nuw i32 %53, 24
  %55 = getelementptr i8, ptr %51, i64 1
  %56 = load i8, ptr %55, align 1
  %57 = zext i8 %56 to i32
  %58 = shl nuw nsw i32 %57, 16
  %59 = or disjoint i32 %58, %54
  %60 = getelementptr i8, ptr %51, i64 2
  %61 = load i8, ptr %60, align 1
  %62 = zext i8 %61 to i32
  %63 = shl nuw nsw i32 %62, 8
  %64 = or disjoint i32 %59, %63
  %65 = getelementptr i8, ptr %51, i64 3
  %66 = load i8, ptr %65, align 1
  %67 = and i8 %66, 127
  %.masked34 = zext nneg i8 %67 to i32
  %68 = or disjoint i32 %64, %.masked34
  %or.cond3 = icmp eq i32 %68, 1191192385
  br i1 %or.cond3, label %69, label %83

69:                                               ; preds = %49
  %70 = getelementptr i8, ptr %51, i64 8
  %71 = load i8, ptr %70, align 1
  %72 = zext i8 %71 to i32
  %73 = shl nuw nsw i32 %72, 16
  %74 = getelementptr i8, ptr %51, i64 9
  %75 = load i8, ptr %74, align 1
  %76 = zext i8 %75 to i32
  %77 = shl nuw nsw i32 %76, 8
  %78 = or disjoint i32 %77, %73
  %79 = getelementptr i8, ptr %51, i64 10
  %80 = load i8, ptr %79, align 1
  %81 = zext i8 %80 to i32
  %82 = or disjoint i32 %78, %81
  br label %83

83:                                               ; preds = %69, %49, %9, %12, %1, %5
  %.030 = phi i32 [ 0, %5 ], [ 0, %1 ], [ 0, %12 ], [ 0, %9 ], [ %82, %69 ], [ %.0, %49 ]
  ret i32 %.030
}